; ModuleID = '7/289.c'
source_filename = "7/289.c"
target datalayout = "e-m:e-p270:32:32-p271:32:32-p272:64:64-i64:64-f80:128-n8:16:32:64-S128"
target triple = "x86_64-pc-linux-gnu"

@.str = private unnamed_addr constant [9 x i8] c"%s %s %s\00", align 1
@.str.1 = private unnamed_addr constant [3 x i8] c"%s\00", align 1

; Function Attrs: noinline nounwind uwtable
define dso_local i32 @main() #0 {
  %1 = alloca i32, align 4
  %2 = alloca [256 x i8], align 16
  %3 = alloca [256 x i8], align 16
  %4 = alloca [256 x i8], align 16
  %5 = alloca [256 x i8], align 16
  %6 = alloca [256 x i8], align 16
  %7 = alloca i32, align 4
  %8 = alloca i32, align 4
  %9 = alloca i32, align 4
  store i32 0, i32* %1, align 4
  %10 = bitcast [256 x i8]* %5 to i8*
  call void @llvm.memset.p0i8.i64(i8* align 16 %10, i8 0, i64 256, i1 false)
  %11 = bitcast [256 x i8]* %6 to i8*
  call void @llvm.memset.p0i8.i64(i8* align 16 %11, i8 0, i64 256, i1 false)
  %12 = getelementptr inbounds [256 x i8], [256 x i8]* %2, i64 0, i64 0
  %13 = getelementptr inbounds [256 x i8], [256 x i8]* %3, i64 0, i64 0
  %14 = getelementptr inbounds [256 x i8], [256 x i8]* %4, i64 0, i64 0
  %15 = call i32 (i8*, ...) @__isoc99_scanf(i8* getelementptr inbounds ([9 x i8], [9 x i8]* @.str, i64 0, i64 0), i8* %12, i8* %13, i8* %14)
  %16 = getelementptr inbounds [256 x i8], [256 x i8]* %2, i64 0, i64 0
  %17 = call i64 @strlen(i8* %16) #5
  %18 = trunc i64 %17 to i32
  store i32 %18, i32* %7, align 4
  %19 = getelementptr inbounds [256 x i8], [256 x i8]* %3, i64 0, i64 0
  %20 = call i64 @strlen(i8* %19) #5
  %21 = trunc i64 %20 to i32
  store i32 %21, i32* %8, align 4
  store i32 0, i32* %9, align 4
  br label %22

22:                                               ; preds = %62, %0
  %23 = load i32, i32* %9, align 4
  %24 = load i32, i32* %7, align 4
  %25 = load i32, i32* %8, align 4
  %26 = sub nsw i32 %24, %25
  %27 = icmp sle i32 %23, %26
  br i1 %27, label %28, label %65

28:                                               ; preds = %22
  %29 = getelementptr inbounds [256 x i8], [256 x i8]* %5, i64 0, i64 0
  %30 = getelementptr inbounds [256 x i8], [256 x i8]* %2, i64 0, i64 0
  %31 = load i32, i32* %9, align 4
  %32 = sext i32 %31 to i64
  %33 = getelementptr inbounds i8, i8* %30, i64 %32
  %34 = load i32, i32* %8, align 4
  %35 = sext i32 %34 to i64
  %36 = call i8* @strncpy(i8* %29, i8* %33, i64 %35) #6
  %37 = getelementptr inbounds [256 x i8], [256 x i8]* %5, i64 0, i64 0
  %38 = getelementptr inbounds [256 x i8], [256 x i8]* %3, i64 0, i64 0
  %39 = call i32 @strcmp(i8* %37, i8* %38) #5
  %40 = icmp ne i32 %39, 0
  br i1 %40, label %61, label %41

41:                                               ; preds = %28
  %42 = getelementptr inbounds [256 x i8], [256 x i8]* %6, i64 0, i64 0
  %43 = getelementptr inbounds [256 x i8], [256 x i8]* %2, i64 0, i64 0
  %44 = load i32, i32* %9, align 4
  %45 = sext i32 %44 to i64
  %46 = call i8* @strncpy(i8* %42, i8* %43, i64 %45) #6
  %47 = getelementptr inbounds [256 x i8], [256 x i8]* %6, i64 0, i64 0
  %48 = getelementptr inbounds [256 x i8], [256 x i8]* %4, i64 0, i64 0
  %49 = call i8* @strcat(i8* %47, i8* %48) #6
  %50 = getelementptr inbounds [256 x i8], [256 x i8]* %6, i64 0, i64 0
  %51 = getelementptr inbounds [256 x i8], [256 x i8]* %2, i64 0, i64 0
  %52 = load i32, i32* %9, align 4
  %53 = sext i32 %52 to i64
  %54 = getelementptr inbounds i8, i8* %51, i64 %53
  %55 = load i32, i32* %8, align 4
  %56 = sext i32 %55 to i64
  %57 = getelementptr inbounds i8, i8* %54, i64 %56
  %58 = call i8* @strcat(i8* %50, i8* %57) #6
  %59 = getelementptr inbounds [256 x i8], [256 x i8]* %6, i64 0, i64 0
  %60 = call i32 (i8*, ...) @printf(i8* getelementptr inbounds ([3 x i8], [3 x i8]* @.str.1, i64 0, i64 0), i8* %59)
  store i32 0, i32* %1, align 4
  br label %68

61:                                               ; preds = %28
  br label %62

62:                                               ; preds = %61
  %63 = load i32, i32* %9, align 4
  %64 = add nsw i32 %63, 1
  store i32 %64, i32* %9, align 4
  br label %22

65:                                               ; preds = %22
  %66 = getelementptr inbounds [256 x i8], [256 x i8]* %2, i64 0, i64 0
  %67 = call i32 (i8*, ...) @printf(i8* getelementptr inbounds ([3 x i8], [3 x i8]* @.str.1, i64 0, i64 0), i8* %66)
  store i32 0, i32* %1, align 4
  br label %68

68:                                               ; preds = %65, %41
  %69 = load i32, i32* %1, align 4
  ret i32 %69
}

; Function Attrs: argmemonly nounwind willreturn
declare void @llvm.memset.p0i8.i64(i8* nocapture writeonly, i8, i64, i1 immarg) #1

declare dso_local i32 @__isoc99_scanf(i8*, ...) #2

; Function Attrs: nounwind readonly
declare dso_local i64 @strlen(i8*) #3

; Function Attrs: nounwind
declare dso_local i8* @strncpy(i8*, i8*, i64) #4

; Function Attrs: nounwind readonly
declare dso_local i32 @strcmp(i8*, i8*) #3

; Function Attrs: nounwind
declare dso_local i8* @strcat(i8*, i8*) #4

declare dso_local i32 @printf(i8*, ...) #2


!llvm.module.flags = !{!0}
!llvm.ident = !{!1}

!0 = !{i32 1, !"wchar_size", i32 4}
!1 = !{!"clang version 10.0.0-4ubuntu1 "}
